; Function Attrs: nounwind sspstrong uwtable
define internal noundef i64 @vm_call_iseq_setup_normal_0start_1params_2locals(ptr noundef captures(none) %0, ptr noundef captures(none) %1, ptr noundef readonly captures(none) %2) #2 {
  %4 = getelementptr inbounds nuw i8, ptr %2, i64 8
  %5 = load ptr, ptr %4, align 8, !tbaa !219
  %6 = getelementptr i8, ptr %5, i64 16
  %.val = load ptr, ptr %6, align 8, !tbaa !218
  %7 = getelementptr inbounds nuw i8, ptr %.val, i64 16
  %8 = load ptr, ptr %7, align 8, !tbaa !101
  %9 = getelementptr i8, ptr %8, i64 8
  %.val4 = load ptr, ptr %9, align 8, !tbaa !26
  %10 = getelementptr inbounds nuw i8, ptr %1, i64 8
  %11 = load ptr, ptr %10, align 8, !tbaa !93
  %12 = getelementptr inbounds nuw i8, ptr %2, i64 32
  %13 = load i32, ptr %12, align 8, !tbaa !213
  %14 = sext i32 %13 to i64
  %15 = sub nsw i64 0, %14
  %16 = getelementptr i64, ptr %11, i64 %15
  %17 = getelementptr i8, ptr %16, i64 8
  %18 = getelementptr i8, ptr %16, i64 -8
  store ptr %18, ptr %10, align 8, !tbaa !93
  %19 = getelementptr inbounds nuw i8, ptr %.val4, i64 16
  %20 = load ptr, ptr %19, align 8, !tbaa !73
  %21 = getelementptr inbounds nuw i8, ptr %20, i64 256
  %22 = load i32, ptr %21, align 8, !tbaa !314
  %23 = getelementptr inbounds nuw i8, ptr %0, i64 16
  %24 = load ptr, ptr %23, align 8, !tbaa !66
  %25 = getelementptr i8, ptr %24, i64 -56
  %26 = add i32 %22, 1
  %27 = sext i32 %26 to i64
  %28 = getelementptr i64, ptr %17, i64 %27
  %29 = getelementptr i8, ptr %28, i64 56
  %.not.i = icmp ugt ptr %25, %29
  br i1 %.not.i, label %.lr.ph.i.preheader, label %41, !prof !69

.lr.ph.i.preheader:                               ; preds = %3
  %30 = getelementptr inbounds nuw i8, ptr %20, i64 8
  %31 = load ptr, ptr %30, align 8, !tbaa !137
  %32 = getelementptr inbounds nuw i8, ptr %2, i64 16
  %33 = load i64, ptr %32, align 8, !tbaa !211
  %34 = getelementptr inbounds nuw i8, ptr %2, i64 24
  %35 = load i64, ptr %34, align 8, !tbaa !212
  %36 = getelementptr i8, ptr %16, i64 16
  store i64 4, ptr %17, align 8, !tbaa !7
  %37 = ptrtoint ptr %.val to i64
  %38 = getelementptr i8, ptr %16, i64 24
  store i64 %37, ptr %36, align 8, !tbaa !7
  %39 = getelementptr i8, ptr %16, i64 32
  store i64 %33, ptr %38, align 8, !tbaa !7
  %40 = getelementptr i8, ptr %16, i64 40
  store i64 286326787, ptr %39, align 8, !tbaa !7
  store ptr %31, ptr %25, align 8, !tbaa !95
  %.sroa.2.0..sroa_idx.i = getelementptr i8, ptr %24, i64 -48
  store ptr %40, ptr %.sroa.2.0..sroa_idx.i, align 8, !tbaa !95
  %.sroa.3.0..sroa_idx.i = getelementptr i8, ptr %24, i64 -40
  store ptr %.val4, ptr %.sroa.3.0..sroa_idx.i, align 8, !tbaa !96
  %.sroa.4.0..sroa_idx.i = getelementptr i8, ptr %24, i64 -32
  store i64 %35, ptr %.sroa.4.0..sroa_idx.i, align 8, !tbaa !7
  %.sroa.5.0..sroa_idx.i = getelementptr i8, ptr %24, i64 -24
  store ptr %39, ptr %.sroa.5.0..sroa_idx.i, align 8, !tbaa !95
  %.sroa.6.0..sroa_idx.i = getelementptr i8, ptr %24, i64 -16
  tail call void @llvm.memset.p0.i64(ptr noundef nonnull align 8 dereferenceable(16) %.sroa.6.0..sroa_idx.i, i8 0, i64 16, i1 false)
  fence syncscope("singlethread") seq_cst
  store ptr %25, ptr %23, align 8, !tbaa !66
  ret i64 36

41:                                               ; preds = %3
  tail call fastcc void @vm_stackoverflow() #56
  unreachable
}